; Function Attrs: inlinehint mustprogress uwtable
define internal void @"_ZZ14cmUVStreamReadIZZN13cmCTestLaunch8RunChildEvENK3$_0clERN2cm11uv_pipe_ptrEiRSoRSt14basic_ofstreamIcSt11char_traitsIcEERbSB_iEUlSt6vectorIcSaIcEEE_ZZNS0_8RunChildEvENKS1_clES4_iS5_SA_SB_SB_iEUlvE_ESt10unique_ptrI20cmUVStreamReadHandleSt14default_deleteISI_EEP11uv_stream_sT_T0_ENUlP11uv_handle_smP8uv_buf_tE_8__invokeESR_mST_"(ptr noundef readonly captures(none) %0, i64 noundef %1, ptr noundef writeonly captures(none) initializes((0, 16)) %2) #7 align 2 {
  %.val = load ptr, ptr %0, align 8, !tbaa !218
  tail call void @_ZNSt6vectorIcSaIcEE6resizeEm(ptr noundef nonnull align 8 dereferenceable(24) %.val, i64 noundef %1)
  %4 = load ptr, ptr %.val, align 8, !tbaa !87
  store ptr %4, ptr %2, align 8, !tbaa !220
  %5 = getelementptr inbounds nuw i8, ptr %2, i64 8
  store i64 %1, ptr %5, align 8, !tbaa !222
  ret void
}